target datalayout = "e-m:e-p270:32:32-p271:32:32-p272:64:64-i64:64-i128:128-f80:128-n8:16:32:64-S128"
target triple = "x86_64-pc-linux-gnu"

%"class.google::protobuf::internal::SymbolBase" = type { i8 }
%"class.google::protobuf::Reflection" = type <{ ptr, %"struct.google::protobuf::internal::ReflectionSchema", ptr, ptr, i32, [4 x i8] }>
%"struct.google::protobuf::internal::ReflectionSchema" = type { ptr, ptr, ptr, i32, i32, i32, i32, i32, i32, ptr, i32 }
%"class.google::protobuf::FieldDescriptor" = type { %"class.google::protobuf::internal::SymbolBase", i8, i8, i8, i32, ptr, ptr, ptr, ptr, %union.anon.4, %union.anon.5, ptr, %union.anon.6 }
%union.anon.4 = type { ptr }
%union.anon.5 = type { ptr }
%union.anon.6 = type { i64 }
%"struct.std::once_flag::_Prepare_execution" = type { i8 }
%"struct.std::once_flag" = type { i32 }
%class.anon.31 = type { ptr, ptr }
%class.anon.32 = type { i8 }

@.str.88 = private unnamed_addr constant [26 x i8] c"Field is not a map field.\00", align 1
@.str.91 = private unnamed_addr constant [17 x i8] c"\22DeleteMapValue\22\00", align 1
@_ZSt15__once_callable = external thread_local global ptr, align 8
@_ZSt11__once_call = external thread_local global ptr, align 8

; Function Attrs: inlinehint mustprogress nounwind uwtable
define internal noundef i32 @_ZL18__gthread_active_pv() #6 {
  ret i32 1
}

; Function Attrs: inlinehint mustprogress nounwind uwtable
define linkonce_odr hidden noundef ptr @_ZZNSt9once_flag18_Prepare_executionC1IZSt9call_onceIPFvPKN6google8protobuf15FieldDescriptorEEJS7_EEvRS_OT_DpOT0_EUlvE_EERSB_ENKUlvE_cvPFvvEEv(ptr noundef nonnull align 1 dereferenceable(1) %0) #6 comdat align 2 {
  %2 = alloca ptr, align 8
  store ptr %0, ptr %2, align 8, !tbaa !56
  ret ptr @_ZZNSt9once_flag18_Prepare_executionC1IZSt9call_onceIPFvPKN6google8protobuf15FieldDescriptorEEJS7_EEvRS_OT_DpOT0_EUlvE_EERSB_ENUlvE_8__invokeEv
}

; Function Attrs: mustprogress nounwind uwtable
define linkonce_odr hidden void @_ZNSt9once_flag18_Prepare_executionD2Ev(ptr noundef nonnull align 1 dereferenceable(1) %0) unnamed_addr #10 comdat align 2 {
  %2 = alloca ptr, align 8
  store ptr %0, ptr %2, align 8, !tbaa !339
  %3 = call align 8 ptr @llvm.threadlocal.address.p0(ptr align 8 @_ZSt15__once_callable)
  store ptr null, ptr %3, align 8, !tbaa !56
  %4 = call align 8 ptr @llvm.threadlocal.address.p0(ptr align 8 @_ZSt11__once_call)
  store ptr null, ptr %4, align 8, !tbaa !56
  ret void
}

; Function Attrs: inlinehint mustprogress uwtable
define internal noundef i32 @_ZL14__gthread_oncePiPFvvE(ptr noundef %0, ptr noundef %1) #7 {
  %3 = alloca i32, align 4
  %4 = alloca ptr, align 8
  %5 = alloca ptr, align 8
  store ptr %0, ptr %4, align 8, !tbaa !10
  store ptr %1, ptr %5, align 8, !tbaa !56
  %6 = call noundef i32 @_ZL18__gthread_active_pv()
  %7 = icmp ne i32 %6, 0
  br i1 %7, label %8, label %12

8:                                                ; preds = %2
  %9 = load ptr, ptr %4, align 8, !tbaa !10
  %10 = load ptr, ptr %5, align 8, !tbaa !56
  %11 = call i32 @pthread_once(ptr noundef %9, ptr noundef %10)
  store i32 %11, ptr %3, align 4
  br label %13

12:                                               ; preds = %2
  store i32 -1, ptr %3, align 4
  br label %13

13:                                               ; preds = %12, %8
  %14 = load i32, ptr %3, align 4
  ret i32 %14
}

; Function Attrs: mustprogress nounwind uwtable
define linkonce_odr hidden void @_ZNSt9once_flag18_Prepare_executionC2IZSt9call_onceIPFvPKN6google8protobuf15FieldDescriptorEEJS7_EEvRS_OT_DpOT0_EUlvE_EERSB_(ptr noundef nonnull align 1 dereferenceable(1) %0, ptr noundef nonnull align 8 dereferenceable(16) %1) unnamed_addr #10 comdat align 2 {
  %3 = alloca ptr, align 8
  %4 = alloca ptr, align 8
  %5 = alloca %class.anon.32, align 1
  store ptr %0, ptr %3, align 8, !tbaa !339
  store ptr %1, ptr %4, align 8, !tbaa !56
  %6 = load ptr, ptr %4, align 8, !tbaa !56
  %7 = call align 8 ptr @llvm.threadlocal.address.p0(ptr align 8 @_ZSt15__once_callable)
  store ptr %6, ptr %7, align 8, !tbaa !56
  call void @llvm.lifetime.start.p0(i64 1, ptr %5) #3
  %8 = call noundef ptr @_ZZNSt9once_flag18_Prepare_executionC1IZSt9call_onceIPFvPKN6google8protobuf15FieldDescriptorEEJS7_EEvRS_OT_DpOT0_EUlvE_EERSB_ENKUlvE_cvPFvvEEv(ptr noundef nonnull align 1 dereferenceable(1) %5) #3
  %9 = call align 8 ptr @llvm.threadlocal.address.p0(ptr align 8 @_ZSt11__once_call)
  store ptr %8, ptr %9, align 8, !tbaa !56
  call void @llvm.lifetime.end.p0(i64 1, ptr %5) #3
  ret void
}

; Function Attrs: mustprogress uwtable
define linkonce_odr hidden void @_ZSt9call_onceIPFvPKN6google8protobuf15FieldDescriptorEEJS4_EEvRSt9once_flagOT_DpOT0_(ptr noundef nonnull align 4 dereferenceable(4) %0, ptr noundef nonnull align 8 dereferenceable(8) %1, ptr noundef nonnull align 8 dereferenceable(8) %2) #4 comdat personality ptr @__gxx_personality_v0 {
  %4 = alloca ptr, align 8
  %5 = alloca ptr, align 8
  %6 = alloca ptr, align 8
  %7 = alloca %class.anon.31, align 8
  %8 = alloca %"struct.std::once_flag::_Prepare_execution", align 1
  %9 = alloca i32, align 4
  %10 = alloca ptr, align 8
  %11 = alloca i32, align 4
  store ptr %0, ptr %4, align 8, !tbaa !280
  store ptr %1, ptr %5, align 8, !tbaa !206
  store ptr %2, ptr %6, align 8, !tbaa !234
  call void @llvm.lifetime.start.p0(i64 16, ptr %7) #3
  %12 = getelementptr inbounds nuw %class.anon.31, ptr %7, i32 0, i32 0
  %13 = load ptr, ptr %5, align 8, !tbaa !206
  store ptr %13, ptr %12, align 8, !tbaa !206
  %14 = getelementptr inbounds nuw %class.anon.31, ptr %7, i32 0, i32 1
  %15 = load ptr, ptr %6, align 8, !tbaa !234
  store ptr %15, ptr %14, align 8, !tbaa !234
  call void @llvm.lifetime.start.p0(i64 1, ptr %8) #3
  call void @_ZNSt9once_flag18_Prepare_executionC2IZSt9call_onceIPFvPKN6google8protobuf15FieldDescriptorEEJS7_EEvRS_OT_DpOT0_EUlvE_EERSB_(ptr noundef nonnull align 1 dereferenceable(1) %8, ptr noundef nonnull align 8 dereferenceable(16) %7)
  call void @llvm.lifetime.start.p0(i64 4, ptr %9) #3
  %16 = load ptr, ptr %4, align 8, !tbaa !280
  %17 = getelementptr inbounds nuw %"struct.std::once_flag", ptr %16, i32 0, i32 0
  %18 = invoke noundef i32 @_ZL14__gthread_oncePiPFvvE(ptr noundef %17, ptr noundef @__once_proxy)
          to label %19 unwind label %25

19:                                               ; preds = %3
  store i32 %18, ptr %9, align 4, !tbaa !14
  %20 = load i32, ptr %9, align 4, !tbaa !14
  %21 = icmp ne i32 %20, 0
  br i1 %21, label %22, label %29

22:                                               ; preds = %19
  %23 = load i32, ptr %9, align 4, !tbaa !14
  invoke void @_ZSt20__throw_system_errori(i32 noundef %23) #22
          to label %24 unwind label %25

24:                                               ; preds = %22
  unreachable

25:                                               ; preds = %22, %3
  %26 = landingpad { ptr, i32 }
          cleanup
  %27 = extractvalue { ptr, i32 } %26, 0
  store ptr %27, ptr %10, align 8
  %28 = extractvalue { ptr, i32 } %26, 1
  store i32 %28, ptr %11, align 4
  call void @llvm.lifetime.end.p0(i64 4, ptr %9) #3
  call void @_ZNSt9once_flag18_Prepare_executionD2Ev(ptr noundef nonnull align 1 dereferenceable(1) %8) #3
  call void @llvm.lifetime.end.p0(i64 1, ptr %8) #3
  call void @llvm.lifetime.end.p0(i64 16, ptr %7) #3
  br label %30

29:                                               ; preds = %19
  call void @llvm.lifetime.end.p0(i64 4, ptr %9) #3
  call void @_ZNSt9once_flag18_Prepare_executionD2Ev(ptr noundef nonnull align 1 dereferenceable(1) %8) #3
  call void @llvm.lifetime.end.p0(i64 1, ptr %8) #3
  call void @llvm.lifetime.end.p0(i64 16, ptr %7) #3
  ret void

30:                                               ; preds = %25
  %31 = load ptr, ptr %10, align 8
  %32 = load i32, ptr %11, align 4
  %33 = insertvalue { ptr, i32 } poison, ptr %31, 0
  %34 = insertvalue { ptr, i32 } %33, i32 %32, 1
  resume { ptr, i32 } %34
}

; Function Attrs: mustprogress uwtable
define linkonce_odr hidden void @_ZN6google8protobuf8internal9call_onceIJRSt9once_flagPFvPKNS0_15FieldDescriptorEES7_EEEvDpOT_(ptr noundef nonnull align 4 dereferenceable(4) %0, ptr noundef nonnull align 8 dereferenceable(8) %1, ptr noundef nonnull align 8 dereferenceable(8) %2) #4 comdat {
  %4 = alloca ptr, align 8
  %5 = alloca ptr, align 8
  %6 = alloca ptr, align 8
  store ptr %0, ptr %4, align 8, !tbaa !280
  store ptr %1, ptr %5, align 8, !tbaa !206
  store ptr %2, ptr %6, align 8, !tbaa !234
  %7 = load ptr, ptr %4, align 8, !tbaa !280
  %8 = load ptr, ptr %5, align 8, !tbaa !206
  %9 = load ptr, ptr %6, align 8, !tbaa !234
  call void @_ZSt9call_onceIPFvPKN6google8protobuf15FieldDescriptorEEJS4_EEvRSt9once_flagOT_DpOT0_(ptr noundef nonnull align 4 dereferenceable(4) %7, ptr noundef nonnull align 8 dereferenceable(8) %8, ptr noundef nonnull align 8 dereferenceable(8) %9)
  ret void
}

; Function Attrs: inlinehint mustprogress uwtable
define linkonce_odr hidden noundef i32 @_ZNK6google8protobuf15FieldDescriptor4typeEv(ptr noundef nonnull align 8 dereferenceable(72) %0) #7 comdat align 2 {
  %2 = alloca ptr, align 8
  %3 = alloca ptr, align 8
  %4 = alloca ptr, align 8
  store ptr %0, ptr %2, align 8, !tbaa !57
  %5 = load ptr, ptr %2, align 8
  %6 = getelementptr inbounds nuw %"class.google::protobuf::FieldDescriptor", ptr %5, i32 0, i32 7
  %7 = load ptr, ptr %6, align 8, !tbaa !64
  %8 = icmp ne ptr %7, null
  br i1 %8, label %9, label %12

9:                                                ; preds = %1
  %10 = getelementptr inbounds nuw %"class.google::protobuf::FieldDescriptor", ptr %5, i32 0, i32 7
  %11 = load ptr, ptr %10, align 8, !tbaa !64
  call void @llvm.lifetime.start.p0(i64 8, ptr %3) #3
  store ptr @_ZN6google8protobuf15FieldDescriptor12TypeOnceInitEPKS1_, ptr %3, align 8, !tbaa !56
  call void @llvm.lifetime.start.p0(i64 8, ptr %4) #3
  store ptr %5, ptr %4, align 8, !tbaa !57
  call void @_ZN6google8protobuf8internal9call_onceIJRSt9once_flagPFvPKNS0_15FieldDescriptorEES7_EEEvDpOT_(ptr noundef nonnull align 4 dereferenceable(4) %11, ptr noundef nonnull align 8 dereferenceable(8) %3, ptr noundef nonnull align 8 dereferenceable(8) %4)
  call void @llvm.lifetime.end.p0(i64 8, ptr %4) #3
  call void @llvm.lifetime.end.p0(i64 8, ptr %3) #3
  br label %12

12:                                               ; preds = %9, %1
  %13 = getelementptr inbounds nuw %"class.google::protobuf::FieldDescriptor", ptr %5, i32 0, i32 2
  %14 = load i8, ptr %13, align 2, !tbaa !65
  %15 = zext i8 %14 to i32
  ret i32 %15
}

; Function Attrs: inlinehint mustprogress nounwind uwtable
define linkonce_odr hidden noundef ptr @_ZN6google8protobuf8internal18GetPointerAtOffsetINS1_12MapFieldBaseEEEPT_PNS0_7MessageEj(ptr noundef %0, i32 noundef %1) #6 comdat {
  %3 = alloca ptr, align 8
  %4 = alloca i32, align 4
  store ptr %0, ptr %3, align 8, !tbaa !38
  store i32 %1, ptr %4, align 4, !tbaa !14
  %5 = load ptr, ptr %3, align 8, !tbaa !38
  %6 = load i32, ptr %4, align 4, !tbaa !14
  %7 = zext i32 %6 to i64
  %8 = getelementptr inbounds nuw i8, ptr %5, i64 %7
  ret ptr %8
}

; Function Attrs: inlinehint mustprogress uwtable
define linkonce_odr hidden noundef zeroext i1 @_ZNK6google8protobuf15FieldDescriptor6is_mapEv(ptr noundef nonnull align 8 dereferenceable(72) %0) #7 comdat align 2 {
  %2 = alloca ptr, align 8
  store ptr %0, ptr %2, align 8, !tbaa !57
  %3 = load ptr, ptr %2, align 8
  %4 = call noundef i32 @_ZNK6google8protobuf15FieldDescriptor4typeEv(ptr noundef nonnull align 8 dereferenceable(72) %3)
  %5 = icmp eq i32 %4, 11
  br i1 %5, label %6, label %8

6:                                                ; preds = %1
  %7 = call noundef zeroext i1 @_ZNK6google8protobuf15FieldDescriptor19is_map_message_typeEv(ptr noundef nonnull align 8 dereferenceable(72) %3)
  br label %8

8:                                                ; preds = %6, %1
  %9 = phi i1 [ false, %1 ], [ %7, %6 ]
  ret i1 %9
}

; Function Attrs: inlinehint mustprogress uwtable
define linkonce_odr hidden noundef ptr @_ZNK6google8protobuf10Reflection10MutableRawINS0_8internal12MapFieldBaseEEEPT_PNS0_7MessageEPKNS0_15FieldDescriptorE(ptr noundef nonnull align 8 dereferenceable(96) %0, ptr noundef %1, ptr noundef %2) #7 comdat align 2 {
  %4 = alloca ptr, align 8
  %5 = alloca ptr, align 8
  %6 = alloca ptr, align 8
  store ptr %0, ptr %4, align 8, !tbaa !23
  store ptr %1, ptr %5, align 8, !tbaa !38
  store ptr %2, ptr %6, align 8, !tbaa !57
  %7 = load ptr, ptr %4, align 8
  %8 = load ptr, ptr %5, align 8, !tbaa !38
  %9 = getelementptr inbounds nuw %"class.google::protobuf::Reflection", ptr %7, i32 0, i32 1
  %10 = load ptr, ptr %6, align 8, !tbaa !57
  %11 = call noundef i32 @_ZNK6google8protobuf8internal16ReflectionSchema14GetFieldOffsetEPKNS0_15FieldDescriptorE(ptr noundef nonnull align 8 dereferenceable(64) %9, ptr noundef %10)
  %12 = call noundef ptr @_ZN6google8protobuf8internal18GetPointerAtOffsetINS1_12MapFieldBaseEEEPT_PNS0_7MessageEj(ptr noundef %8, i32 noundef %11)
  ret ptr %12
}

; Function Attrs: mustprogress uwtable
define internal noundef zeroext i1 @_ZN6google8protobuf12_GLOBAL__N_115IsMapFieldInApiEPKNS0_15FieldDescriptorE(ptr noundef %0) #4 {
  %2 = alloca ptr, align 8
  store ptr %0, ptr %2, align 8, !tbaa !57
  %3 = load ptr, ptr %2, align 8, !tbaa !57
  %4 = call noundef zeroext i1 @_ZNK6google8protobuf15FieldDescriptor6is_mapEv(ptr noundef nonnull align 8 dereferenceable(72) %3)
  ret i1 %4
}

; Function Attrs: mustprogress uwtable
define hidden noundef zeroext i1 @_ZNK6google8protobuf10Reflection14DeleteMapValueEPNS0_7MessageEPKNS0_15FieldDescriptorERKNS0_6MapKeyE(ptr noundef nonnull align 8 dereferenceable(96) %0, ptr noundef %1, ptr noundef %2, ptr noundef nonnull align 8 dereferenceable(36) %3) #4 align 2 {
  %5 = alloca ptr, align 8
  %6 = alloca ptr, align 8
  %7 = alloca ptr, align 8
  %8 = alloca ptr, align 8
  store ptr %0, ptr %5, align 8, !tbaa !23
  store ptr %1, ptr %6, align 8, !tbaa !38
  store ptr %2, ptr %7, align 8, !tbaa !57
  store ptr %3, ptr %8, align 8, !tbaa !261
  %9 = load ptr, ptr %5, align 8
  %10 = load ptr, ptr %7, align 8, !tbaa !57
  %11 = call noundef zeroext i1 @_ZN6google8protobuf12_GLOBAL__N_115IsMapFieldInApiEPKNS0_15FieldDescriptorE(ptr noundef %10)
  br i1 %11, label %16, label %12

12:                                               ; preds = %4
  %13 = getelementptr inbounds nuw %"class.google::protobuf::Reflection", ptr %9, i32 0, i32 0
  %14 = load ptr, ptr %13, align 8, !tbaa !33
  %15 = load ptr, ptr %7, align 8, !tbaa !57
  call void @_ZN6google8protobuf12_GLOBAL__N_126ReportReflectionUsageErrorEPKNS0_10DescriptorEPKNS0_15FieldDescriptorEPKcS9_(ptr noundef %14, ptr noundef %15, ptr noundef @.str.91, ptr noundef @.str.88)
  br label %16

16:                                               ; preds = %12, %4
  %17 = load ptr, ptr %6, align 8, !tbaa !38
  %18 = load ptr, ptr %7, align 8, !tbaa !57
  %19 = call noundef ptr @_ZNK6google8protobuf10Reflection10MutableRawINS0_8internal12MapFieldBaseEEEPT_PNS0_7MessageEPKNS0_15FieldDescriptorE(ptr noundef nonnull align 8 dereferenceable(96) %9, ptr noundef %17, ptr noundef %18)
  %20 = load ptr, ptr %8, align 8, !tbaa !261
  %21 = load ptr, ptr %19, align 8, !tbaa !70
  %22 = getelementptr inbounds ptr, ptr %21, i64 5
  %23 = load ptr, ptr %22, align 8
  %24 = call noundef zeroext i1 %23(ptr noundef nonnull align 8 dereferenceable(68) %19, ptr noundef nonnull align 8 dereferenceable(36) %20)
  ret i1 %24
}