; Function Attrs: mustprogress uwtable
define hidden noundef zeroext i1 @_ZNK6google8protobuf10Reflection14DeleteMapValueEPNS0_7MessageEPKNS0_15FieldDescriptorERKNS0_6MapKeyE(ptr noundef nonnull align 8 dereferenceable(96) %0, ptr noundef %1, ptr noundef %2, ptr noundef nonnull align 8 dereferenceable(36) %3) local_unnamed_addr #3 align 2 personality ptr @__gxx_personality_v0 {
  %5 = alloca %class.anon.31, align 8
  %6 = alloca ptr, align 8
  %7 = alloca ptr, align 8
  %8 = getelementptr inbounds nuw i8, ptr %2, i64 24
  %9 = load ptr, ptr %8, align 8, !tbaa !70
  %.not.i.i.i = icmp eq ptr %9, null
  br i1 %.not.i.i.i, label %_ZNK6google8protobuf15FieldDescriptor4typeEv.exit.i.i, label %10

10:                                               ; preds = %4
  call void @llvm.lifetime.start.p0(i64 8, ptr nonnull %6) #25
  store ptr @_ZN6google8protobuf15FieldDescriptor12TypeOnceInitEPKS1_, ptr %6, align 8, !tbaa !71
  call void @llvm.lifetime.start.p0(i64 8, ptr nonnull %7) #25
  store ptr %2, ptr %7, align 8, !tbaa !72
  call void @llvm.lifetime.start.p0(i64 16, ptr nonnull %5) #25
  store ptr %6, ptr %5, align 8, !tbaa !73
  %11 = getelementptr inbounds nuw i8, ptr %5, i64 8
  store ptr %7, ptr %11, align 8, !tbaa !74
  %12 = call align 8 ptr @llvm.threadlocal.address.p0(ptr align 8 @_ZSt15__once_callable)
  store ptr %5, ptr %12, align 8, !tbaa !71
  %13 = call align 8 ptr @llvm.threadlocal.address.p0(ptr align 8 @_ZSt11__once_call)
  store ptr @_ZZNSt9once_flag18_Prepare_executionC1IZSt9call_onceIPFvPKN6google8protobuf15FieldDescriptorEEJS7_EEvRS_OT_DpOT0_EUlvE_EERSB_ENUlvE_8__invokeEv, ptr %13, align 8, !tbaa !71
  %14 = invoke noundef i32 @pthread_once(ptr noundef nonnull align 4 dereferenceable(4) %9, ptr noundef nonnull @__once_proxy)
          to label %_ZL14__gthread_oncePiPFvvE.exit.i.i.i.i.i unwind label %17

_ZL14__gthread_oncePiPFvvE.exit.i.i.i.i.i:        ; preds = %10
  %.not.i.i.i.i.i = icmp eq i32 %14, 0
  br i1 %.not.i.i.i.i.i, label %_ZN6google8protobuf8internal9call_onceIJRSt9once_flagPFvPKNS0_15FieldDescriptorEES7_EEEvDpOT_.exit.i.i.i, label %15

15:                                               ; preds = %_ZL14__gthread_oncePiPFvvE.exit.i.i.i.i.i
  invoke void @_ZSt20__throw_system_errori(i32 noundef %14) #26
          to label %16 unwind label %17

16:                                               ; preds = %15
  unreachable

17:                                               ; preds = %15, %10
  %18 = landingpad { ptr, i32 }
          cleanup
  store ptr null, ptr %12, align 8, !tbaa !71
  store ptr null, ptr %13, align 8, !tbaa !71
  call void @llvm.lifetime.end.p0(i64 16, ptr nonnull %5) #25
  resume { ptr, i32 } %18

_ZN6google8protobuf8internal9call_onceIJRSt9once_flagPFvPKNS0_15FieldDescriptorEES7_EEEvDpOT_.exit.i.i.i: ; preds = %_ZL14__gthread_oncePiPFvvE.exit.i.i.i.i.i
  store ptr null, ptr %12, align 8, !tbaa !71
  store ptr null, ptr %13, align 8, !tbaa !71
  call void @llvm.lifetime.end.p0(i64 16, ptr nonnull %5) #25
  call void @llvm.lifetime.end.p0(i64 8, ptr nonnull %7) #25
  call void @llvm.lifetime.end.p0(i64 8, ptr nonnull %6) #25
  br label %_ZNK6google8protobuf15FieldDescriptor4typeEv.exit.i.i

_ZNK6google8protobuf15FieldDescriptor4typeEv.exit.i.i: ; preds = %_ZN6google8protobuf8internal9call_onceIJRSt9once_flagPFvPKNS0_15FieldDescriptorEES7_EEEvDpOT_.exit.i.i.i, %4
  %19 = getelementptr inbounds nuw i8, ptr %2, i64 2
  %20 = load i8, ptr %19, align 2, !tbaa !78
  %21 = icmp eq i8 %20, 11
  br i1 %21, label %_ZN6google8protobuf12_GLOBAL__N_115IsMapFieldInApiEPKNS0_15FieldDescriptorE.exit, label %_ZN6google8protobuf12_GLOBAL__N_115IsMapFieldInApiEPKNS0_15FieldDescriptorE.exit.thread

_ZN6google8protobuf12_GLOBAL__N_115IsMapFieldInApiEPKNS0_15FieldDescriptorE.exit: ; preds = %_ZNK6google8protobuf15FieldDescriptor4typeEv.exit.i.i
  %22 = call noundef zeroext i1 @_ZNK6google8protobuf15FieldDescriptor19is_map_message_typeEv(ptr noundef nonnull align 8 dereferenceable(72) %2)
  br i1 %22, label %24, label %_ZN6google8protobuf12_GLOBAL__N_115IsMapFieldInApiEPKNS0_15FieldDescriptorE.exit.thread

_ZN6google8protobuf12_GLOBAL__N_115IsMapFieldInApiEPKNS0_15FieldDescriptorE.exit.thread: ; preds = %_ZNK6google8protobuf15FieldDescriptor4typeEv.exit.i.i, %_ZN6google8protobuf12_GLOBAL__N_115IsMapFieldInApiEPKNS0_15FieldDescriptorE.exit
  %23 = load ptr, ptr %0, align 8, !tbaa !18
  call fastcc void @_ZN6google8protobuf12_GLOBAL__N_126ReportReflectionUsageErrorEPKNS0_10DescriptorEPKNS0_15FieldDescriptorEPKcS9_(ptr noundef %23, ptr noundef nonnull %2, ptr noundef nonnull @.str.91, ptr noundef nonnull @.str.88)
  br label %24

24:                                               ; preds = %_ZN6google8protobuf12_GLOBAL__N_115IsMapFieldInApiEPKNS0_15FieldDescriptorE.exit.thread, %_ZN6google8protobuf12_GLOBAL__N_115IsMapFieldInApiEPKNS0_15FieldDescriptorE.exit
  %25 = getelementptr inbounds nuw i8, ptr %0, i64 8
  %26 = call noundef i32 @_ZNK6google8protobuf8internal16ReflectionSchema14GetFieldOffsetEPKNS0_15FieldDescriptorE(ptr noundef nonnull align 8 dereferenceable(64) %25, ptr noundef nonnull %2)
  %27 = zext i32 %26 to i64
  %28 = getelementptr inbounds nuw i8, ptr %1, i64 %27
  %29 = load ptr, ptr %28, align 8, !tbaa !101
  %30 = getelementptr inbounds nuw i8, ptr %29, i64 40
  %31 = load ptr, ptr %30, align 8
  %32 = call noundef zeroext i1 %31(ptr noundef nonnull align 8 dereferenceable(68) %28, ptr noundef nonnull align 8 dereferenceable(36) %3)
  ret i1 %32
}